target datalayout = "e-m:e-p270:32:32-p271:32:32-p272:64:64-i64:64-i128:128-f80:128-n8:16:32:64-S128"
target triple = "x86_64-pc-linux-gnu"

%class.UPerfTest = type { ptr, i32, ptr, ptr, ptr, ptr, ptr, i8, ptr, ptr, i32, ptr, i32, i8, ptr, i32, i8, i8, i32, i32, i32, ptr, ptr, ptr }

@_ZL9execCount = internal global i32 0, align 4
@stdout = external global ptr, align 8
@.str.4 = private unnamed_addr constant [36 x i8] c"\0A---ERROR: Test doesn't exist: %s!\0A\00", align 1
@.str.5 = private unnamed_addr constant [2 x i8] c"*\00", align 1
@.str.6 = private unnamed_addr constant [5 x i8] c"LIST\00", align 1

; Function Attrs: mustprogress uwtable
define noundef signext i8 @_ZN9UPerfTest7runTestEPcS0_(ptr noundef nonnull align 8 dereferenceable(160) %0, ptr noundef %1, ptr noundef %2) #2 align 2 {
  %4 = alloca ptr, align 8
  %5 = alloca ptr, align 8
  %6 = alloca ptr, align 8
  %7 = alloca i8, align 1
  %8 = alloca ptr, align 8
  store ptr %0, ptr %4, align 8, !tbaa !8
  store ptr %1, ptr %5, align 8, !tbaa !51
  store ptr %2, ptr %6, align 8, !tbaa !51
  %9 = load ptr, ptr %4, align 8
  call void @llvm.lifetime.start.p0(i64 1, ptr %7) #17
  call void @llvm.lifetime.start.p0(i64 8, ptr %8) #17
  store ptr null, ptr %8, align 8, !tbaa !51
  %10 = load ptr, ptr %5, align 8, !tbaa !51
  %11 = icmp ne ptr %10, null
  br i1 %11, label %12, label %15

12:                                               ; preds = %3
  %13 = load ptr, ptr %5, align 8, !tbaa !51
  %14 = call noundef ptr @strchr(ptr noundef %13, i32 noundef 47) #18
  store ptr %14, ptr %8, align 8, !tbaa !51
  br label %15

15:                                               ; preds = %12, %3
  %16 = load ptr, ptr %8, align 8, !tbaa !51
  %17 = icmp ne ptr %16, null
  br i1 %17, label %18, label %23

18:                                               ; preds = %15
  %19 = load ptr, ptr %8, align 8, !tbaa !51
  %20 = getelementptr inbounds i8, ptr %19, i64 1
  %21 = getelementptr inbounds nuw %class.UPerfTest, ptr %9, i32 0, i32 23
  store ptr %20, ptr %21, align 8, !tbaa !67
  %22 = load ptr, ptr %8, align 8, !tbaa !51
  store i8 0, ptr %22, align 1, !tbaa !65
  br label %25

23:                                               ; preds = %15
  %24 = getelementptr inbounds nuw %class.UPerfTest, ptr %9, i32 0, i32 23
  store ptr null, ptr %24, align 8, !tbaa !67
  br label %25

25:                                               ; preds = %23, %18
  %26 = load ptr, ptr %5, align 8, !tbaa !51
  %27 = icmp ne ptr %26, null
  br i1 %27, label %28, label %38

28:                                               ; preds = %25
  %29 = load ptr, ptr %5, align 8, !tbaa !51
  %30 = getelementptr inbounds i8, ptr %29, i64 0
  %31 = load i8, ptr %30, align 1, !tbaa !65
  %32 = sext i8 %31 to i32
  %33 = icmp eq i32 %32, 0
  br i1 %33, label %38, label %34

34:                                               ; preds = %28
  %35 = load ptr, ptr %5, align 8, !tbaa !51
  %36 = call i32 @strcmp(ptr noundef %35, ptr noundef @.str.5) #18
  %37 = icmp eq i32 %36, 0
  br i1 %37, label %38, label %43

38:                                               ; preds = %34, %28, %25
  %39 = load ptr, ptr %9, align 8, !tbaa !16
  %40 = getelementptr inbounds ptr, ptr %39, i64 4
  %41 = load ptr, ptr %40, align 8
  %42 = call noundef signext i8 %41(ptr noundef nonnull align 8 dereferenceable(160) %9, ptr noundef null, ptr noundef null)
  store i8 %42, ptr %7, align 1, !tbaa !65
  br label %59

43:                                               ; preds = %34
  %44 = load ptr, ptr %5, align 8, !tbaa !51
  %45 = call i32 @strcmp(ptr noundef %44, ptr noundef @.str.6) #18
  %46 = icmp eq i32 %45, 0
  br i1 %46, label %47, label %51

47:                                               ; preds = %43
  %48 = load ptr, ptr %9, align 8, !tbaa !16
  %49 = getelementptr inbounds ptr, ptr %48, i64 0
  %50 = load ptr, ptr %49, align 8
  call void %50(ptr noundef nonnull align 8 dereferenceable(160) %9)
  store i8 1, ptr %7, align 1, !tbaa !65
  br label %58

51:                                               ; preds = %43
  %52 = load ptr, ptr %5, align 8, !tbaa !51
  %53 = load ptr, ptr %6, align 8, !tbaa !51
  %54 = load ptr, ptr %9, align 8, !tbaa !16
  %55 = getelementptr inbounds ptr, ptr %54, i64 4
  %56 = load ptr, ptr %55, align 8
  %57 = call noundef signext i8 %56(ptr noundef nonnull align 8 dereferenceable(160) %9, ptr noundef %52, ptr noundef %53)
  store i8 %57, ptr %7, align 1, !tbaa !65
  br label %58

58:                                               ; preds = %51, %47
  br label %59

59:                                               ; preds = %58, %38
  %60 = load ptr, ptr %8, align 8, !tbaa !51
  %61 = icmp ne ptr %60, null
  br i1 %61, label %62, label %64

62:                                               ; preds = %59
  %63 = load ptr, ptr %8, align 8, !tbaa !51
  store i8 47, ptr %63, align 1, !tbaa !65
  br label %64

64:                                               ; preds = %62, %59
  %65 = load i8, ptr %7, align 1, !tbaa !65
  call void @llvm.lifetime.end.p0(i64 8, ptr %8) #17
  call void @llvm.lifetime.end.p0(i64 1, ptr %7) #17
  ret i8 %65
}

; Function Attrs: mustprogress uwtable
define noundef signext i8 @_ZN9UPerfTest3runEv(ptr noundef nonnull align 8 dereferenceable(160) %0) #2 align 2 {
  %2 = alloca i8, align 1
  %3 = alloca ptr, align 8
  %4 = alloca i8, align 1
  %5 = alloca i32, align 4
  %6 = alloca i32, align 4
  %7 = alloca ptr, align 8
  %8 = alloca ptr, align 8
  store ptr %0, ptr %3, align 8, !tbaa !8
  %9 = load ptr, ptr %3, align 8
  %10 = getelementptr inbounds nuw %class.UPerfTest, ptr %9, i32 0, i32 10
  %11 = load i32, ptr %10, align 8, !tbaa !45
  %12 = icmp eq i32 %11, 1
  br i1 %12, label %13, label %15

13:                                               ; preds = %1
  %14 = call noundef signext i8 @_ZN9UPerfTest7runTestEPcS0_(ptr noundef nonnull align 8 dereferenceable(160) %9, ptr noundef null, ptr noundef null)
  store i8 %14, ptr %2, align 1
  br label %80

15:                                               ; preds = %1
  call void @llvm.lifetime.start.p0(i64 1, ptr %4) #17
  store i8 0, ptr %4, align 1, !tbaa !65
  call void @llvm.lifetime.start.p0(i64 4, ptr %5) #17
  store i32 1, ptr %5, align 4, !tbaa !10
  br label %16

16:                                               ; preds = %72, %15
  %17 = load i32, ptr %5, align 4, !tbaa !10
  %18 = getelementptr inbounds nuw %class.UPerfTest, ptr %9, i32 0, i32 10
  %19 = load i32, ptr %18, align 8, !tbaa !45
  %20 = icmp slt i32 %17, %19
  br i1 %20, label %22, label %21

21:                                               ; preds = %16
  store i32 2, ptr %6, align 4
  br label %75

22:                                               ; preds = %16
  %23 = getelementptr inbounds nuw %class.UPerfTest, ptr %9, i32 0, i32 2
  %24 = load ptr, ptr %23, align 8, !tbaa !24
  %25 = load i32, ptr %5, align 4, !tbaa !10
  %26 = sext i32 %25 to i64
  %27 = getelementptr inbounds ptr, ptr %24, i64 %26
  %28 = load ptr, ptr %27, align 8, !tbaa !51
  %29 = getelementptr inbounds i8, ptr %28, i64 0
  %30 = load i8, ptr %29, align 1, !tbaa !65
  %31 = sext i8 %30 to i32
  %32 = icmp ne i32 %31, 45
  br i1 %32, label %33, label %71

33:                                               ; preds = %22
  call void @llvm.lifetime.start.p0(i64 8, ptr %7) #17
  %34 = getelementptr inbounds nuw %class.UPerfTest, ptr %9, i32 0, i32 2
  %35 = load ptr, ptr %34, align 8, !tbaa !24
  %36 = load i32, ptr %5, align 4, !tbaa !10
  %37 = sext i32 %36 to i64
  %38 = getelementptr inbounds ptr, ptr %35, i64 %37
  %39 = load ptr, ptr %38, align 8, !tbaa !51
  store ptr %39, ptr %7, align 8, !tbaa !51
  %40 = getelementptr inbounds nuw %class.UPerfTest, ptr %9, i32 0, i32 16
  %41 = load i8, ptr %40, align 4, !tbaa !36
  %42 = sext i8 %41 to i32
  %43 = icmp eq i32 %42, 1
  br i1 %43, label %44, label %45

44:                                               ; preds = %33
  br label %45

45:                                               ; preds = %44, %33
  call void @llvm.lifetime.start.p0(i64 8, ptr %8) #17
  %46 = load ptr, ptr %7, align 8, !tbaa !51
  %47 = call noundef ptr @strchr(ptr noundef %46, i32 noundef 64) #18
  store ptr %47, ptr %8, align 8, !tbaa !51
  %48 = load ptr, ptr %8, align 8, !tbaa !51
  %49 = icmp ne ptr %48, null
  br i1 %49, label %50, label %54

50:                                               ; preds = %45
  %51 = load ptr, ptr %8, align 8, !tbaa !51
  store i8 0, ptr %51, align 1, !tbaa !65
  %52 = load ptr, ptr %8, align 8, !tbaa !51
  %53 = getelementptr inbounds i8, ptr %52, i64 1
  store ptr %53, ptr %8, align 8, !tbaa !51
  br label %54

54:                                               ; preds = %50, %45
  store i32 0, ptr @_ZL9execCount, align 4, !tbaa !10
  %55 = load ptr, ptr %7, align 8, !tbaa !51
  %56 = load ptr, ptr %8, align 8, !tbaa !51
  %57 = call noundef signext i8 @_ZN9UPerfTest7runTestEPcS0_(ptr noundef nonnull align 8 dereferenceable(160) %9, ptr noundef %55, ptr noundef %56)
  store i8 %57, ptr %4, align 1, !tbaa !65
  %58 = load i8, ptr %4, align 1, !tbaa !65
  %59 = icmp ne i8 %58, 0
  br i1 %59, label %60, label %63

60:                                               ; preds = %54
  %61 = load i32, ptr @_ZL9execCount, align 4, !tbaa !10
  %62 = icmp sle i32 %61, 0
  br i1 %62, label %63, label %67

63:                                               ; preds = %60, %54
  %64 = load ptr, ptr @stdout, align 8, !tbaa !57
  %65 = load ptr, ptr %7, align 8, !tbaa !51
  %66 = call i32 (ptr, ptr, ...) @fprintf(ptr noundef %64, ptr noundef @.str.4, ptr noundef %65) #17
  store i8 0, ptr %2, align 1
  store i32 1, ptr %6, align 4
  br label %68

67:                                               ; preds = %60
  store i32 0, ptr %6, align 4
  br label %68

68:                                               ; preds = %67, %63
  call void @llvm.lifetime.end.p0(i64 8, ptr %8) #17
  call void @llvm.lifetime.end.p0(i64 8, ptr %7) #17
  %69 = load i32, ptr %6, align 4
  switch i32 %69, label %75 [
    i32 0, label %70
  ]

70:                                               ; preds = %68
  br label %71

71:                                               ; preds = %70, %22
  br label %72

72:                                               ; preds = %71
  %73 = load i32, ptr %5, align 4, !tbaa !10
  %74 = add nsw i32 %73, 1
  store i32 %74, ptr %5, align 4, !tbaa !10
  br label %16, !llvm.loop !66

75:                                               ; preds = %68, %21
  call void @llvm.lifetime.end.p0(i64 4, ptr %5) #17
  %76 = load i32, ptr %6, align 4
  switch i32 %76, label %79 [
    i32 2, label %77
  ]

77:                                               ; preds = %75
  %78 = load i8, ptr %4, align 1, !tbaa !65
  store i8 %78, ptr %2, align 1
  store i32 1, ptr %6, align 4
  br label %79

79:                                               ; preds = %77, %75
  call void @llvm.lifetime.end.p0(i64 1, ptr %4) #17
  br label %80

80:                                               ; preds = %79, %13
  %81 = load i8, ptr %2, align 1
  ret i8 %81
}