; Function Attrs: mustprogress uwtable
define noundef signext i8 @_ZN9UPerfTest3runEv(ptr noundef nonnull align 8 dereferenceable(160) %0) local_unnamed_addr #3 align 2 {
  %2 = getelementptr inbounds nuw i8, ptr %0, i64 80
  %3 = load i32, ptr %2, align 8, !tbaa !33
  %4 = icmp eq i32 %3, 1
  br i1 %4, label %7, label %.preheader

.preheader:                                       ; preds = %1
  %.not3032 = icmp sgt i32 %3, 1
  br i1 %.not3032, label %.lr.ph, label %.loopexit

.lr.ph:                                           ; preds = %.preheader
  %5 = getelementptr inbounds nuw i8, ptr %0, i64 16
  %6 = getelementptr inbounds nuw i8, ptr %0, i64 152
  br label %13

7:                                                ; preds = %1
  %8 = getelementptr inbounds nuw i8, ptr %0, i64 152
  store ptr null, ptr %8, align 8, !tbaa !51
  %9 = load ptr, ptr %0, align 8, !tbaa !3
  %10 = getelementptr inbounds nuw i8, ptr %9, i64 32
  %11 = load ptr, ptr %10, align 8
  %12 = tail call noundef signext i8 %11(ptr noundef nonnull align 8 dereferenceable(160) %0, ptr noundef null, ptr noundef null)
  br label %.loopexit

13:                                               ; preds = %.lr.ph, %.critedge
  %14 = phi i32 [ %3, %.lr.ph ], [ %53, %.critedge ]
  %indvars.iv = phi i64 [ 1, %.lr.ph ], [ %indvars.iv.next, %.critedge ]
  %.02233 = phi i8 [ 0, %.lr.ph ], [ %.224, %.critedge ]
  %15 = load ptr, ptr %5, align 8, !tbaa !18
  %16 = getelementptr inbounds nuw ptr, ptr %15, i64 %indvars.iv
  %17 = load ptr, ptr %16, align 8, !tbaa !52
  %18 = load i8, ptr %17, align 1, !tbaa !53
  %.not = icmp eq i8 %18, 45
  br i1 %.not, label %.critedge, label %19

19:                                               ; preds = %13
  %20 = tail call noundef ptr @strchr(ptr noundef nonnull dereferenceable(1) %17, i32 noundef 64) #27
  %.not27 = icmp eq ptr %20, null
  br i1 %.not27, label %23, label %21

21:                                               ; preds = %19
  store i8 0, ptr %20, align 1, !tbaa !53
  %22 = getelementptr inbounds nuw i8, ptr %20, i64 1
  br label %23

23:                                               ; preds = %19, %21
  %.0 = phi ptr [ %22, %21 ], [ null, %19 ]
  store i32 0, ptr @_ZL9execCount, align 4, !tbaa !41
  %24 = tail call noundef ptr @strchr(ptr noundef nonnull dereferenceable(1) %17, i32 noundef 47) #27
  %.not16.i = icmp eq ptr %24, null
  br i1 %.not16.i, label %26, label %.thread23.i

.thread23.i:                                      ; preds = %23
  %25 = getelementptr inbounds nuw i8, ptr %24, i64 1
  store ptr %25, ptr %6, align 8, !tbaa !51
  store i8 0, ptr %24, align 1, !tbaa !53
  br label %27

26:                                               ; preds = %23
  store ptr null, ptr %6, align 8, !tbaa !51
  br label %27

27:                                               ; preds = %26, %.thread23.i
  %28 = load i8, ptr %17, align 1, !tbaa !53
  switch i8 %28, label %.tail.thread.i [
    i8 0, label %32
    i8 42, label %.tail.i
  ]

.tail.i:                                          ; preds = %27
  %29 = getelementptr inbounds nuw i8, ptr %17, i64 1
  %30 = load i8, ptr %29, align 1
  %31 = icmp eq i8 %30, 0
  br i1 %31, label %32, label %.tail.thread.i

32:                                               ; preds = %.tail.i, %27
  %33 = load ptr, ptr %0, align 8, !tbaa !3
  %34 = getelementptr inbounds nuw i8, ptr %33, i64 32
  %35 = load ptr, ptr %34, align 8
  %36 = tail call noundef signext i8 %35(ptr noundef nonnull align 8 dereferenceable(160) %0, ptr noundef null, ptr noundef null)
  br i1 %.not16.i, label %_ZN9UPerfTest7runTestEPcS0_.exit, label %46

.tail.thread.i:                                   ; preds = %.tail.i, %27
  %37 = tail call i32 @strcmp(ptr noundef nonnull dereferenceable(1) %17, ptr noundef nonnull dereferenceable(5) @.str.6) #27
  %38 = icmp eq i32 %37, 0
  %39 = load ptr, ptr %0, align 8, !tbaa !3
  br i1 %38, label %40, label %42

40:                                               ; preds = %.tail.thread.i
  %41 = load ptr, ptr %39, align 8
  tail call void %41(ptr noundef nonnull align 8 dereferenceable(160) %0)
  br i1 %.not16.i, label %_ZN9UPerfTest7runTestEPcS0_.exit, label %46

42:                                               ; preds = %.tail.thread.i
  %43 = getelementptr inbounds nuw i8, ptr %39, i64 32
  %44 = load ptr, ptr %43, align 8
  %45 = tail call noundef signext i8 %44(ptr noundef nonnull align 8 dereferenceable(160) %0, ptr noundef nonnull %17, ptr noundef %.0)
  br i1 %.not16.i, label %_ZN9UPerfTest7runTestEPcS0_.exit, label %46

46:                                               ; preds = %42, %40, %32
  %.01436.i = phi i8 [ %36, %32 ], [ %45, %42 ], [ 1, %40 ]
  store i8 47, ptr %24, align 1, !tbaa !53
  br label %_ZN9UPerfTest7runTestEPcS0_.exit

_ZN9UPerfTest7runTestEPcS0_.exit:                 ; preds = %32, %40, %42, %46
  %.01437.i = phi i8 [ %36, %32 ], [ %.01436.i, %46 ], [ %45, %42 ], [ 1, %40 ]
  %47 = icmp ne i8 %.01437.i, 0
  %48 = load i32, ptr @_ZL9execCount, align 4
  %49 = icmp sgt i32 %48, 0
  %or.cond.not = select i1 %47, i1 %49, i1 false
  br i1 %or.cond.not, label %_ZN9UPerfTest7runTestEPcS0_.exit..critedge_crit_edge, label %50

_ZN9UPerfTest7runTestEPcS0_.exit..critedge_crit_edge: ; preds = %_ZN9UPerfTest7runTestEPcS0_.exit
  %.pre = load i32, ptr %2, align 8, !tbaa !33
  br label %.critedge

50:                                               ; preds = %_ZN9UPerfTest7runTestEPcS0_.exit
  %51 = load ptr, ptr @stdout, align 8, !tbaa !54
  %52 = tail call i32 (ptr, ptr, ...) @fprintf(ptr noundef %51, ptr noundef nonnull @.str.4, ptr noundef nonnull %17) #23
  br label %.loopexit

.critedge:                                        ; preds = %_ZN9UPerfTest7runTestEPcS0_.exit..critedge_crit_edge, %13
  %53 = phi i32 [ %14, %13 ], [ %.pre, %_ZN9UPerfTest7runTestEPcS0_.exit..critedge_crit_edge ]
  %.224 = phi i8 [ %.02233, %13 ], [ %.01437.i, %_ZN9UPerfTest7runTestEPcS0_.exit..critedge_crit_edge ]
  %indvars.iv.next = add nuw nsw i64 %indvars.iv, 1
  %54 = sext i32 %53 to i64
  %.not30 = icmp slt i64 %indvars.iv.next, %54
  br i1 %.not30, label %13, label %.loopexit, !llvm.loop !56

.loopexit:                                        ; preds = %.critedge, %.preheader, %50, %7
  %.018 = phi i8 [ %12, %7 ], [ 0, %50 ], [ 0, %.preheader ], [ %.224, %.critedge ]
  ret i8 %.018
}